target datalayout = "e-m:e-p270:32:32-p271:32:32-p272:64:64-i64:64-i128:128-f80:128-n8:16:32:64-S128"
target triple = "x86_64-pc-linux-gnu"

%struct.exr_attribute_list = type { i32, i32, ptr, ptr }
%struct._priv_exr_context_t = type { i8, i8, i8, i8, i8, i8, i8, i8, %struct.exr_attr_string_t, %struct.exr_attr_string_t, ptr, ptr, ptr, ptr, ptr, ptr, ptr, ptr, i32, i32, i32, i32, i32, float, ptr, ptr, ptr, i64, ptr, ptr, i64, i32, i32, i32, i32, %struct._priv_exr_part_t, ptr, ptr, %struct.exr_attribute_list, %union.pthread_mutex_t, i8, i8, [2 x i8], i32 }
%struct.exr_attr_string_t = type { i32, i32, ptr }
%struct._priv_exr_part_t = type { i32, i32, %struct.exr_attribute_list, ptr, ptr, ptr, ptr, ptr, ptr, ptr, ptr, ptr, ptr, ptr, ptr, ptr, ptr, %struct.exr_attr_box2i_t, %struct.exr_attr_box2i_t, i32, i32, i32, float, i32, i32, ptr, ptr, ptr, ptr, i64, i16, i16, i32, i64, i64 }
%struct.exr_attr_box2i_t = type { %struct.exr_attr_v2i_t, %struct.exr_attr_v2i_t }
%struct.exr_attr_v2i_t = type { i32, i32 }
%union.pthread_mutex_t = type { %struct.__pthread_mutex_s }
%struct.__pthread_mutex_s = type { i32, i32, i32, i32, i32, i16, i16, %struct.__pthread_internal_list }
%struct.__pthread_internal_list = type { ptr, ptr }
%struct.exr_attribute_t = type { ptr, ptr, i8, i8, [2 x i8], i32, %union.anon }
%union.anon = type { double }

; Function Attrs: nounwind uwtable
define internal i32 @attr_destroy(ptr noundef %0, ptr noundef %1) #0 {
  %3 = alloca ptr, align 8
  %4 = alloca ptr, align 8
  %5 = alloca i32, align 4
  store ptr %0, ptr %3, align 8, !tbaa !15
  store ptr %1, ptr %4, align 8, !tbaa !23
  call void @llvm.lifetime.start.p0(i64 4, ptr %5) #6
  store i32 0, ptr %5, align 4, !tbaa !8
  %6 = load ptr, ptr %4, align 8, !tbaa !23
  %7 = getelementptr inbounds nuw %struct.exr_attribute_t, ptr %6, i32 0, i32 5
  %8 = load i32, ptr %7, align 4, !tbaa !38
  switch i32 %8, label %46 [
    i32 3, label %9
    i32 9, label %15
    i32 17, label %21
    i32 19, label %27
    i32 20, label %33
    i32 30, label %39
    i32 1, label %45
    i32 2, label %45
    i32 4, label %45
    i32 5, label %45
    i32 7, label %45
    i32 12, label %45
    i32 6, label %45
    i32 8, label %45
    i32 10, label %45
    i32 11, label %45
    i32 13, label %45
    i32 14, label %45
    i32 15, label %45
    i32 16, label %45
    i32 18, label %45
    i32 21, label %45
    i32 22, label %45
    i32 23, label %45
    i32 24, label %45
    i32 25, label %45
    i32 26, label %45
    i32 27, label %45
    i32 28, label %45
    i32 29, label %45
    i32 0, label %45
    i32 31, label %45
  ]

9:                                                ; preds = %2
  %10 = load ptr, ptr %3, align 8, !tbaa !15
  %11 = load ptr, ptr %4, align 8, !tbaa !23
  %12 = getelementptr inbounds nuw %struct.exr_attribute_t, ptr %11, i32 0, i32 6
  %13 = load ptr, ptr %12, align 8, !tbaa !40
  %14 = call i32 @exr_attr_chlist_destroy(ptr noundef %10, ptr noundef %13)
  store i32 %14, ptr %5, align 4, !tbaa !8
  br label %47

15:                                               ; preds = %2
  %16 = load ptr, ptr %3, align 8, !tbaa !15
  %17 = load ptr, ptr %4, align 8, !tbaa !23
  %18 = getelementptr inbounds nuw %struct.exr_attribute_t, ptr %17, i32 0, i32 6
  %19 = load ptr, ptr %18, align 8, !tbaa !40
  %20 = call i32 @exr_attr_float_vector_destroy(ptr noundef %16, ptr noundef %19)
  store i32 %20, ptr %5, align 4, !tbaa !8
  br label %47

21:                                               ; preds = %2
  %22 = load ptr, ptr %3, align 8, !tbaa !15
  %23 = load ptr, ptr %4, align 8, !tbaa !23
  %24 = getelementptr inbounds nuw %struct.exr_attribute_t, ptr %23, i32 0, i32 6
  %25 = load ptr, ptr %24, align 8, !tbaa !40
  %26 = call i32 @exr_attr_preview_destroy(ptr noundef %22, ptr noundef %25)
  store i32 %26, ptr %5, align 4, !tbaa !8
  br label %47

27:                                               ; preds = %2
  %28 = load ptr, ptr %3, align 8, !tbaa !15
  %29 = load ptr, ptr %4, align 8, !tbaa !23
  %30 = getelementptr inbounds nuw %struct.exr_attribute_t, ptr %29, i32 0, i32 6
  %31 = load ptr, ptr %30, align 8, !tbaa !40
  %32 = call i32 @exr_attr_string_destroy(ptr noundef %28, ptr noundef %31)
  store i32 %32, ptr %5, align 4, !tbaa !8
  br label %47

33:                                               ; preds = %2
  %34 = load ptr, ptr %3, align 8, !tbaa !15
  %35 = load ptr, ptr %4, align 8, !tbaa !23
  %36 = getelementptr inbounds nuw %struct.exr_attribute_t, ptr %35, i32 0, i32 6
  %37 = load ptr, ptr %36, align 8, !tbaa !40
  %38 = call i32 @exr_attr_string_vector_destroy(ptr noundef %34, ptr noundef %37)
  store i32 %38, ptr %5, align 4, !tbaa !8
  br label %47

39:                                               ; preds = %2
  %40 = load ptr, ptr %3, align 8, !tbaa !15
  %41 = load ptr, ptr %4, align 8, !tbaa !23
  %42 = getelementptr inbounds nuw %struct.exr_attribute_t, ptr %41, i32 0, i32 6
  %43 = load ptr, ptr %42, align 8, !tbaa !40
  %44 = call i32 @exr_attr_opaquedata_destroy(ptr noundef %40, ptr noundef %43)
  store i32 %44, ptr %5, align 4, !tbaa !8
  br label %47

45:                                               ; preds = %2, %2, %2, %2, %2, %2, %2, %2, %2, %2, %2, %2, %2, %2, %2, %2, %2, %2, %2, %2, %2, %2, %2, %2, %2, %2
  br label %46

46:                                               ; preds = %2, %45
  br label %47

47:                                               ; preds = %46, %39, %33, %27, %21, %15, %9
  %48 = load ptr, ptr %3, align 8, !tbaa !15
  %49 = getelementptr inbounds nuw %struct._priv_exr_context_t, ptr %48, i32 0, i32 17
  %50 = load ptr, ptr %49, align 8, !tbaa !25
  %51 = load ptr, ptr %4, align 8, !tbaa !23
  call void %50(ptr noundef %51)
  %52 = load i32, ptr %5, align 4, !tbaa !8
  call void @llvm.lifetime.end.p0(i64 4, ptr %5) #6
  ret i32 %52
}