; Function Attrs: nounwind uwtable
define internal fastcc i32 @attr_destroy(ptr noundef nonnull %0, ptr noundef %1) unnamed_addr #3 {
  %3 = getelementptr inbounds nuw i8, ptr %1, i64 20
  %4 = load i32, ptr %3, align 4, !tbaa !30
  switch i32 %4, label %29 [
    i32 3, label %5
    i32 9, label %9
    i32 17, label %13
    i32 19, label %17
    i32 20, label %21
    i32 30, label %25
  ]

5:                                                ; preds = %2
  %6 = getelementptr inbounds nuw i8, ptr %1, i64 24
  %7 = load ptr, ptr %6, align 8, !tbaa !32
  %8 = tail call i32 @exr_attr_chlist_destroy(ptr noundef nonnull %0, ptr noundef %7) #9
  br label %29

9:                                                ; preds = %2
  %10 = getelementptr inbounds nuw i8, ptr %1, i64 24
  %11 = load ptr, ptr %10, align 8, !tbaa !32
  %12 = tail call i32 @exr_attr_float_vector_destroy(ptr noundef nonnull %0, ptr noundef %11) #9
  br label %29

13:                                               ; preds = %2
  %14 = getelementptr inbounds nuw i8, ptr %1, i64 24
  %15 = load ptr, ptr %14, align 8, !tbaa !32
  %16 = tail call i32 @exr_attr_preview_destroy(ptr noundef nonnull %0, ptr noundef %15) #9
  br label %29

17:                                               ; preds = %2
  %18 = getelementptr inbounds nuw i8, ptr %1, i64 24
  %19 = load ptr, ptr %18, align 8, !tbaa !32
  %20 = tail call i32 @exr_attr_string_destroy(ptr noundef nonnull %0, ptr noundef %19) #9
  br label %29

21:                                               ; preds = %2
  %22 = getelementptr inbounds nuw i8, ptr %1, i64 24
  %23 = load ptr, ptr %22, align 8, !tbaa !32
  %24 = tail call i32 @exr_attr_string_vector_destroy(ptr noundef nonnull %0, ptr noundef %23) #9
  br label %29

25:                                               ; preds = %2
  %26 = getelementptr inbounds nuw i8, ptr %1, i64 24
  %27 = load ptr, ptr %26, align 8, !tbaa !32
  %28 = tail call i32 @exr_attr_opaquedata_destroy(ptr noundef nonnull %0, ptr noundef %27) #9
  br label %29

29:                                               ; preds = %2, %25, %21, %17, %13, %9, %5
  %.0 = phi i32 [ 0, %2 ], [ %28, %25 ], [ %24, %21 ], [ %20, %17 ], [ %16, %13 ], [ %12, %9 ], [ %8, %5 ]
  %30 = getelementptr inbounds nuw i8, ptr %0, i64 96
  %31 = load ptr, ptr %30, align 8, !tbaa !17
  tail call void %31(ptr noundef nonnull %1) #9
  ret i32 %.0
}